target datalayout = "e-m:e-p270:32:32-p271:32:32-p272:64:64-i64:64-i128:128-f80:128-n8:16:32:64-S128"
target triple = "x86_64-pc-linux-gnu"

; Function Attrs: nounwind uwtable
define internal i64 @cubic_peak(i64 noundef %0, i64 noundef %1, i64 noundef %2, i64 noundef %3) #0 {
  %5 = alloca i64, align 8
  %6 = alloca i64, align 8
  %7 = alloca i64, align 8
  %8 = alloca i64, align 8
  %9 = alloca i64, align 8
  %10 = alloca i32, align 4
  store i64 %0, ptr %5, align 8
  store i64 %1, ptr %6, align 8
  store i64 %2, ptr %7, align 8
  store i64 %3, ptr %8, align 8
  store i64 0, ptr %9, align 8
  %11 = load i64, ptr %5, align 8
  %12 = icmp slt i64 %11, 0
  br i1 %12, label %13, label %16

13:                                               ; preds = %4
  %14 = load i64, ptr %5, align 8
  %15 = sub nsw i64 0, %14
  br label %18

16:                                               ; preds = %4
  %17 = load i64, ptr %5, align 8
  br label %18

18:                                               ; preds = %16, %13
  %19 = phi i64 [ %15, %13 ], [ %17, %16 ]
  %20 = load i64, ptr %6, align 8
  %21 = icmp slt i64 %20, 0
  br i1 %21, label %22, label %25

22:                                               ; preds = %18
  %23 = load i64, ptr %6, align 8
  %24 = sub nsw i64 0, %23
  br label %27

25:                                               ; preds = %18
  %26 = load i64, ptr %6, align 8
  br label %27

27:                                               ; preds = %25, %22
  %28 = phi i64 [ %24, %22 ], [ %26, %25 ]
  %29 = or i64 %19, %28
  %30 = load i64, ptr %7, align 8
  %31 = icmp slt i64 %30, 0
  br i1 %31, label %32, label %35

32:                                               ; preds = %27
  %33 = load i64, ptr %7, align 8
  %34 = sub nsw i64 0, %33
  br label %37

35:                                               ; preds = %27
  %36 = load i64, ptr %7, align 8
  br label %37

37:                                               ; preds = %35, %32
  %38 = phi i64 [ %34, %32 ], [ %36, %35 ]
  %39 = or i64 %29, %38
  %40 = load i64, ptr %8, align 8
  %41 = icmp slt i64 %40, 0
  br i1 %41, label %42, label %45

42:                                               ; preds = %37
  %43 = load i64, ptr %8, align 8
  %44 = sub nsw i64 0, %43
  br label %47

45:                                               ; preds = %37
  %46 = load i64, ptr %8, align 8
  br label %47

47:                                               ; preds = %45, %42
  %48 = phi i64 [ %44, %42 ], [ %46, %45 ]
  %49 = or i64 %39, %48
  %50 = trunc i64 %49 to i32
  %51 = call i32 @llvm.ctlz.i32(i32 %50, i1 true)
  %52 = sub nsw i32 31, %51
  %53 = sub nsw i32 27, %52
  store i32 %53, ptr %10, align 4
  %54 = load i32, ptr %10, align 4
  %55 = icmp sgt i32 %54, 0
  br i1 %55, label %56, label %81

56:                                               ; preds = %47
  %57 = load i32, ptr %10, align 4
  %58 = icmp sgt i32 %57, 2
  br i1 %58, label %59, label %60

59:                                               ; preds = %56
  store i32 2, ptr %10, align 4
  br label %60

60:                                               ; preds = %59, %56
  %61 = load i32, ptr %10, align 4
  %62 = shl i32 1, %61
  %63 = sext i32 %62 to i64
  %64 = load i64, ptr %5, align 8
  %65 = mul nsw i64 %64, %63
  store i64 %65, ptr %5, align 8
  %66 = load i32, ptr %10, align 4
  %67 = shl i32 1, %66
  %68 = sext i32 %67 to i64
  %69 = load i64, ptr %6, align 8
  %70 = mul nsw i64 %69, %68
  store i64 %70, ptr %6, align 8
  %71 = load i32, ptr %10, align 4
  %72 = shl i32 1, %71
  %73 = sext i32 %72 to i64
  %74 = load i64, ptr %7, align 8
  %75 = mul nsw i64 %74, %73
  store i64 %75, ptr %7, align 8
  %76 = load i32, ptr %10, align 4
  %77 = shl i32 1, %76
  %78 = sext i32 %77 to i64
  %79 = load i64, ptr %8, align 8
  %80 = mul nsw i64 %79, %78
  store i64 %80, ptr %8, align 8
  br label %102

81:                                               ; preds = %47
  %82 = load i32, ptr %10, align 4
  %83 = sub nsw i32 0, %82
  %84 = load i64, ptr %5, align 8
  %85 = zext i32 %83 to i64
  %86 = ashr i64 %84, %85
  store i64 %86, ptr %5, align 8
  %87 = load i32, ptr %10, align 4
  %88 = sub nsw i32 0, %87
  %89 = load i64, ptr %6, align 8
  %90 = zext i32 %88 to i64
  %91 = ashr i64 %89, %90
  store i64 %91, ptr %6, align 8
  %92 = load i32, ptr %10, align 4
  %93 = sub nsw i32 0, %92
  %94 = load i64, ptr %7, align 8
  %95 = zext i32 %93 to i64
  %96 = ashr i64 %94, %95
  store i64 %96, ptr %7, align 8
  %97 = load i32, ptr %10, align 4
  %98 = sub nsw i32 0, %97
  %99 = load i64, ptr %8, align 8
  %100 = zext i32 %98 to i64
  %101 = ashr i64 %99, %100
  store i64 %101, ptr %8, align 8
  br label %102

102:                                              ; preds = %81, %60
  br label %103

103:                                              ; preds = %187, %102
  %104 = load i64, ptr %6, align 8
  %105 = icmp sgt i64 %104, 0
  br i1 %105, label %109, label %106

106:                                              ; preds = %103
  %107 = load i64, ptr %7, align 8
  %108 = icmp sgt i64 %107, 0
  br label %109

109:                                              ; preds = %106, %103
  %110 = phi i1 [ true, %103 ], [ %108, %106 ]
  br i1 %110, label %111, label %188

111:                                              ; preds = %109
  %112 = load i64, ptr %5, align 8
  %113 = load i64, ptr %6, align 8
  %114 = add nsw i64 %112, %113
  %115 = load i64, ptr %7, align 8
  %116 = load i64, ptr %8, align 8
  %117 = add nsw i64 %115, %116
  %118 = icmp sgt i64 %114, %117
  br i1 %118, label %119, label %143

119:                                              ; preds = %111
  %120 = load i64, ptr %8, align 8
  %121 = load i64, ptr %7, align 8
  %122 = add nsw i64 %120, %121
  store i64 %122, ptr %8, align 8
  %123 = load i64, ptr %7, align 8
  %124 = load i64, ptr %6, align 8
  %125 = add nsw i64 %123, %124
  store i64 %125, ptr %7, align 8
  %126 = load i64, ptr %6, align 8
  %127 = load i64, ptr %5, align 8
  %128 = add nsw i64 %126, %127
  store i64 %128, ptr %6, align 8
  %129 = load i64, ptr %8, align 8
  %130 = load i64, ptr %7, align 8
  %131 = add nsw i64 %129, %130
  store i64 %131, ptr %8, align 8
  %132 = load i64, ptr %7, align 8
  %133 = load i64, ptr %6, align 8
  %134 = add nsw i64 %132, %133
  store i64 %134, ptr %7, align 8
  %135 = load i64, ptr %8, align 8
  %136 = load i64, ptr %7, align 8
  %137 = add nsw i64 %135, %136
  %138 = ashr i64 %137, 3
  store i64 %138, ptr %8, align 8
  %139 = load i64, ptr %7, align 8
  %140 = ashr i64 %139, 2
  store i64 %140, ptr %7, align 8
  %141 = load i64, ptr %6, align 8
  %142 = ashr i64 %141, 1
  store i64 %142, ptr %6, align 8
  br label %167

143:                                              ; preds = %111
  %144 = load i64, ptr %5, align 8
  %145 = load i64, ptr %6, align 8
  %146 = add nsw i64 %144, %145
  store i64 %146, ptr %5, align 8
  %147 = load i64, ptr %6, align 8
  %148 = load i64, ptr %7, align 8
  %149 = add nsw i64 %147, %148
  store i64 %149, ptr %6, align 8
  %150 = load i64, ptr %7, align 8
  %151 = load i64, ptr %8, align 8
  %152 = add nsw i64 %150, %151
  store i64 %152, ptr %7, align 8
  %153 = load i64, ptr %5, align 8
  %154 = load i64, ptr %6, align 8
  %155 = add nsw i64 %153, %154
  store i64 %155, ptr %5, align 8
  %156 = load i64, ptr %6, align 8
  %157 = load i64, ptr %7, align 8
  %158 = add nsw i64 %156, %157
  store i64 %158, ptr %6, align 8
  %159 = load i64, ptr %5, align 8
  %160 = load i64, ptr %6, align 8
  %161 = add nsw i64 %159, %160
  %162 = ashr i64 %161, 3
  store i64 %162, ptr %5, align 8
  %163 = load i64, ptr %6, align 8
  %164 = ashr i64 %163, 2
  store i64 %164, ptr %6, align 8
  %165 = load i64, ptr %7, align 8
  %166 = ashr i64 %165, 1
  store i64 %166, ptr %7, align 8
  br label %167

167:                                              ; preds = %143, %119
  %168 = load i64, ptr %5, align 8
  %169 = load i64, ptr %6, align 8
  %170 = icmp eq i64 %168, %169
  br i1 %170, label %171, label %177

171:                                              ; preds = %167
  %172 = load i64, ptr %5, align 8
  %173 = load i64, ptr %7, align 8
  %174 = icmp sge i64 %172, %173
  br i1 %174, label %175, label %177

175:                                              ; preds = %171
  %176 = load i64, ptr %5, align 8
  store i64 %176, ptr %9, align 8
  br label %188

177:                                              ; preds = %171, %167
  %178 = load i64, ptr %7, align 8
  %179 = load i64, ptr %8, align 8
  %180 = icmp eq i64 %178, %179
  br i1 %180, label %181, label %187

181:                                              ; preds = %177
  %182 = load i64, ptr %6, align 8
  %183 = load i64, ptr %8, align 8
  %184 = icmp sle i64 %182, %183
  br i1 %184, label %185, label %187

185:                                              ; preds = %181
  %186 = load i64, ptr %8, align 8
  store i64 %186, ptr %9, align 8
  br label %188

187:                                              ; preds = %181, %177
  br label %103, !llvm.loop !6

188:                                              ; preds = %185, %175, %109
  %189 = load i32, ptr %10, align 4
  %190 = icmp sgt i32 %189, 0
  br i1 %190, label %191, label %196

191:                                              ; preds = %188
  %192 = load i32, ptr %10, align 4
  %193 = load i64, ptr %9, align 8
  %194 = zext i32 %192 to i64
  %195 = ashr i64 %193, %194
  store i64 %195, ptr %9, align 8
  br label %202

196:                                              ; preds = %188
  %197 = load i32, ptr %10, align 4
  %198 = sub nsw i32 0, %197
  %199 = load i64, ptr %9, align 8
  %200 = zext i32 %198 to i64
  %201 = shl i64 %199, %200
  store i64 %201, ptr %9, align 8
  br label %202

202:                                              ; preds = %196, %191
  %203 = load i64, ptr %9, align 8
  ret i64 %203
}

; Function Attrs: nounwind uwtable
define internal void @BBox_Cubic_Check(i64 noundef %0, i64 noundef %1, i64 noundef %2, i64 noundef %3, ptr noundef %4, ptr noundef %5) #0 {
  %7 = alloca i64, align 8
  %8 = alloca i64, align 8
  %9 = alloca i64, align 8
  %10 = alloca i64, align 8
  %11 = alloca ptr, align 8
  %12 = alloca ptr, align 8
  store i64 %0, ptr %7, align 8
  store i64 %1, ptr %8, align 8
  store i64 %2, ptr %9, align 8
  store i64 %3, ptr %10, align 8
  store ptr %4, ptr %11, align 8
  store ptr %5, ptr %12, align 8
  %13 = load i64, ptr %8, align 8
  %14 = load ptr, ptr %12, align 8
  %15 = load i64, ptr %14, align 8
  %16 = icmp sgt i64 %13, %15
  br i1 %16, label %22, label %17

17:                                               ; preds = %6
  %18 = load i64, ptr %9, align 8
  %19 = load ptr, ptr %12, align 8
  %20 = load i64, ptr %19, align 8
  %21 = icmp sgt i64 %18, %20
  br i1 %21, label %22, label %43

22:                                               ; preds = %17, %6
  %23 = load i64, ptr %7, align 8
  %24 = load ptr, ptr %12, align 8
  %25 = load i64, ptr %24, align 8
  %26 = sub nsw i64 %23, %25
  %27 = load i64, ptr %8, align 8
  %28 = load ptr, ptr %12, align 8
  %29 = load i64, ptr %28, align 8
  %30 = sub nsw i64 %27, %29
  %31 = load i64, ptr %9, align 8
  %32 = load ptr, ptr %12, align 8
  %33 = load i64, ptr %32, align 8
  %34 = sub nsw i64 %31, %33
  %35 = load i64, ptr %10, align 8
  %36 = load ptr, ptr %12, align 8
  %37 = load i64, ptr %36, align 8
  %38 = sub nsw i64 %35, %37
  %39 = call i64 @cubic_peak(i64 noundef %26, i64 noundef %30, i64 noundef %34, i64 noundef %38)
  %40 = load ptr, ptr %12, align 8
  %41 = load i64, ptr %40, align 8
  %42 = add nsw i64 %41, %39
  store i64 %42, ptr %40, align 8
  br label %43

43:                                               ; preds = %22, %17
  %44 = load i64, ptr %8, align 8
  %45 = load ptr, ptr %11, align 8
  %46 = load i64, ptr %45, align 8
  %47 = icmp slt i64 %44, %46
  br i1 %47, label %53, label %48

48:                                               ; preds = %43
  %49 = load i64, ptr %9, align 8
  %50 = load ptr, ptr %11, align 8
  %51 = load i64, ptr %50, align 8
  %52 = icmp slt i64 %49, %51
  br i1 %52, label %53, label %74

53:                                               ; preds = %48, %43
  %54 = load ptr, ptr %11, align 8
  %55 = load i64, ptr %54, align 8
  %56 = load i64, ptr %7, align 8
  %57 = sub nsw i64 %55, %56
  %58 = load ptr, ptr %11, align 8
  %59 = load i64, ptr %58, align 8
  %60 = load i64, ptr %8, align 8
  %61 = sub nsw i64 %59, %60
  %62 = load ptr, ptr %11, align 8
  %63 = load i64, ptr %62, align 8
  %64 = load i64, ptr %9, align 8
  %65 = sub nsw i64 %63, %64
  %66 = load ptr, ptr %11, align 8
  %67 = load i64, ptr %66, align 8
  %68 = load i64, ptr %10, align 8
  %69 = sub nsw i64 %67, %68
  %70 = call i64 @cubic_peak(i64 noundef %57, i64 noundef %61, i64 noundef %65, i64 noundef %69)
  %71 = load ptr, ptr %11, align 8
  %72 = load i64, ptr %71, align 8
  %73 = sub nsw i64 %72, %70
  store i64 %73, ptr %71, align 8
  br label %74

74:                                               ; preds = %53, %48
  ret void
}