; Function Attrs: nofree norecurse nosync nounwind memory(argmem: readwrite) uwtable
define internal fastcc void @BBox_Cubic_Check(i64 noundef %0, i64 noundef %1, i64 noundef %2, i64 noundef %3, ptr nocapture noundef %4, ptr nocapture noundef %5) unnamed_addr #4 {
  %7 = load i64, ptr %5, align 8
  %8 = icmp slt i64 %7, %1
  %9 = icmp slt i64 %7, %2
  %or.cond = or i1 %8, %9
  br i1 %or.cond, label %10, label %74

10:                                               ; preds = %6
  %11 = sub nsw i64 %0, %7
  %12 = sub nsw i64 %1, %7
  %13 = sub nsw i64 %2, %7
  %14 = sub nsw i64 %3, %7
  %15 = tail call i64 @llvm.abs.i64(i64 %11, i1 true)
  %16 = tail call i64 @llvm.abs.i64(i64 %12, i1 true)
  %17 = or i64 %16, %15
  %18 = tail call i64 @llvm.abs.i64(i64 %13, i1 true)
  %19 = or i64 %17, %18
  %20 = tail call i64 @llvm.abs.i64(i64 %14, i1 true)
  %21 = or i64 %19, %20
  %22 = trunc i64 %21 to i32
  %23 = tail call range(i32 0, 33) i32 @llvm.ctlz.i32(i32 %22, i1 true)
  %24 = xor i32 %23, 31
  %25 = sub nsw i32 27, %24
  %26 = icmp ult i32 %24, 27
  br i1 %26, label %27, label %33

27:                                               ; preds = %10
  %spec.store.select.i = tail call i32 @llvm.smin.i32(i32 %25, i32 2)
  %28 = zext nneg i32 %spec.store.select.i to i64
  %29 = shl i64 %11, %28
  %30 = shl i64 %12, %28
  %31 = shl i64 %13, %28
  %32 = shl i64 %14, %28
  br label %39

33:                                               ; preds = %10
  %.neg.i = sub nsw i32 4, %23
  %34 = zext nneg i32 %.neg.i to i64
  %35 = ashr i64 %11, %34
  %36 = ashr i64 %12, %34
  %37 = ashr i64 %13, %34
  %38 = ashr i64 %14, %34
  br label %39

39:                                               ; preds = %33, %27
  %.089.i = phi i64 [ %29, %27 ], [ %35, %33 ]
  %.086.i = phi i64 [ %30, %27 ], [ %36, %33 ]
  %.083.i = phi i64 [ %31, %27 ], [ %37, %33 ]
  %.081.i = phi i64 [ %32, %27 ], [ %38, %33 ]
  %.0.i = phi i32 [ %spec.store.select.i, %27 ], [ %25, %33 ]
  br label %40

40:                                               ; preds = %65, %39
  %.190.i = phi i64 [ %.089.i, %39 ], [ %.291.i, %65 ]
  %.187.i = phi i64 [ %.086.i, %39 ], [ %.288.i, %65 ]
  %.184.i = phi i64 [ %.083.i, %39 ], [ %.285.i, %65 ]
  %.182.i = phi i64 [ %.081.i, %39 ], [ %.2.i, %65 ]
  %41 = icmp sgt i64 %.187.i, 0
  %42 = icmp sgt i64 %.184.i, 0
  %43 = select i1 %41, i1 true, i1 %42
  br i1 %43, label %44, label %cubic_peak.exit

44:                                               ; preds = %40
  %45 = add nsw i64 %.187.i, %.190.i
  %46 = add nsw i64 %.182.i, %.184.i
  %47 = icmp sgt i64 %45, %46
  %48 = add nsw i64 %.184.i, %.187.i
  br i1 %47, label %49, label %56

49:                                               ; preds = %44
  %50 = add nsw i64 %46, %48
  %51 = add nsw i64 %48, %45
  %52 = add nsw i64 %50, %51
  %53 = ashr i64 %52, 3
  %54 = ashr i64 %51, 2
  %55 = ashr i64 %45, 1
  br label %63

56:                                               ; preds = %44
  %57 = add nsw i64 %48, %45
  %58 = add nsw i64 %46, %48
  %59 = add nsw i64 %57, %58
  %60 = ashr i64 %59, 3
  %61 = ashr i64 %58, 2
  %62 = ashr i64 %46, 1
  br label %63

63:                                               ; preds = %56, %49
  %.291.i = phi i64 [ %.190.i, %49 ], [ %60, %56 ]
  %.288.i = phi i64 [ %55, %49 ], [ %61, %56 ]
  %.285.i = phi i64 [ %54, %49 ], [ %62, %56 ]
  %.2.i = phi i64 [ %53, %49 ], [ %.182.i, %56 ]
  %64 = icmp ne i64 %.291.i, %.288.i
  %.not.i = icmp slt i64 %.291.i, %.285.i
  %or.cond.i = select i1 %64, i1 true, i1 %.not.i
  br i1 %or.cond.i, label %65, label %cubic_peak.exit

65:                                               ; preds = %63
  %66 = icmp ne i64 %.285.i, %.2.i
  %.not98.i = icmp sgt i64 %.288.i, %.2.i
  %or.cond99.i = or i1 %66, %.not98.i
  br i1 %or.cond99.i, label %40, label %cubic_peak.exit, !llvm.loop !6

cubic_peak.exit:                                  ; preds = %40, %63, %65
  %.080.i = phi i64 [ 0, %40 ], [ %.291.i, %63 ], [ %.285.i, %65 ]
  %67 = icmp sgt i32 %.0.i, 0
  %68 = zext nneg i32 %.0.i to i64
  %69 = ashr i64 %.080.i, %68
  %70 = sub nsw i32 0, %.0.i
  %71 = zext nneg i32 %70 to i64
  %72 = shl i64 %.080.i, %71
  %.1.i = select i1 %67, i64 %69, i64 %72
  %73 = add nsw i64 %.1.i, %7
  store i64 %73, ptr %5, align 8
  br label %74

74:                                               ; preds = %6, %cubic_peak.exit
  %75 = load i64, ptr %4, align 8
  %76 = icmp sgt i64 %75, %1
  %77 = icmp sgt i64 %75, %2
  %or.cond26 = or i1 %76, %77
  br i1 %or.cond26, label %78, label %142

78:                                               ; preds = %74
  %79 = sub nsw i64 %75, %0
  %80 = sub nsw i64 %75, %1
  %81 = sub nsw i64 %75, %2
  %82 = sub nsw i64 %75, %3
  %83 = tail call i64 @llvm.abs.i64(i64 %79, i1 true)
  %84 = tail call i64 @llvm.abs.i64(i64 %80, i1 true)
  %85 = or i64 %84, %83
  %86 = tail call i64 @llvm.abs.i64(i64 %81, i1 true)
  %87 = or i64 %85, %86
  %88 = tail call i64 @llvm.abs.i64(i64 %82, i1 true)
  %89 = or i64 %87, %88
  %90 = trunc i64 %89 to i32
  %91 = tail call range(i32 0, 33) i32 @llvm.ctlz.i32(i32 %90, i1 true)
  %92 = xor i32 %91, 31
  %93 = sub nsw i32 27, %92
  %94 = icmp ult i32 %92, 27
  br i1 %94, label %95, label %101

95:                                               ; preds = %78
  %spec.store.select.i47 = tail call i32 @llvm.smin.i32(i32 %93, i32 2)
  %96 = zext nneg i32 %spec.store.select.i47 to i64
  %97 = shl i64 %79, %96
  %98 = shl i64 %80, %96
  %99 = shl i64 %81, %96
  %100 = shl i64 %82, %96
  br label %107

101:                                              ; preds = %78
  %.neg.i27 = sub nsw i32 4, %91
  %102 = zext nneg i32 %.neg.i27 to i64
  %103 = ashr i64 %79, %102
  %104 = ashr i64 %80, %102
  %105 = ashr i64 %81, %102
  %106 = ashr i64 %82, %102
  br label %107

107:                                              ; preds = %101, %95
  %.089.i28 = phi i64 [ %97, %95 ], [ %103, %101 ]
  %.086.i29 = phi i64 [ %98, %95 ], [ %104, %101 ]
  %.083.i30 = phi i64 [ %99, %95 ], [ %105, %101 ]
  %.081.i31 = phi i64 [ %100, %95 ], [ %106, %101 ]
  %.0.i32 = phi i32 [ %spec.store.select.i47, %95 ], [ %93, %101 ]
  br label %108

108:                                              ; preds = %133, %107
  %.190.i33 = phi i64 [ %.089.i28, %107 ], [ %.291.i39, %133 ]
  %.187.i34 = phi i64 [ %.086.i29, %107 ], [ %.288.i40, %133 ]
  %.184.i35 = phi i64 [ %.083.i30, %107 ], [ %.285.i41, %133 ]
  %.182.i36 = phi i64 [ %.081.i31, %107 ], [ %.2.i42, %133 ]
  %109 = icmp sgt i64 %.187.i34, 0
  %110 = icmp sgt i64 %.184.i35, 0
  %111 = select i1 %109, i1 true, i1 %110
  br i1 %111, label %112, label %cubic_peak.exit48

112:                                              ; preds = %108
  %113 = add nsw i64 %.187.i34, %.190.i33
  %114 = add nsw i64 %.182.i36, %.184.i35
  %115 = icmp sgt i64 %113, %114
  %116 = add nsw i64 %.184.i35, %.187.i34
  br i1 %115, label %117, label %124

117:                                              ; preds = %112
  %118 = add nsw i64 %114, %116
  %119 = add nsw i64 %116, %113
  %120 = add nsw i64 %118, %119
  %121 = ashr i64 %120, 3
  %122 = ashr i64 %119, 2
  %123 = ashr i64 %113, 1
  br label %131

124:                                              ; preds = %112
  %125 = add nsw i64 %116, %113
  %126 = add nsw i64 %114, %116
  %127 = add nsw i64 %125, %126
  %128 = ashr i64 %127, 3
  %129 = ashr i64 %126, 2
  %130 = ashr i64 %114, 1
  br label %131

131:                                              ; preds = %124, %117
  %.291.i39 = phi i64 [ %.190.i33, %117 ], [ %128, %124 ]
  %.288.i40 = phi i64 [ %123, %117 ], [ %129, %124 ]
  %.285.i41 = phi i64 [ %122, %117 ], [ %130, %124 ]
  %.2.i42 = phi i64 [ %121, %117 ], [ %.182.i36, %124 ]
  %132 = icmp ne i64 %.291.i39, %.288.i40
  %.not.i43 = icmp slt i64 %.291.i39, %.285.i41
  %or.cond.i44 = select i1 %132, i1 true, i1 %.not.i43
  br i1 %or.cond.i44, label %133, label %cubic_peak.exit48

133:                                              ; preds = %131
  %134 = icmp ne i64 %.285.i41, %.2.i42
  %.not98.i45 = icmp sgt i64 %.288.i40, %.2.i42
  %or.cond99.i46 = or i1 %134, %.not98.i45
  br i1 %or.cond99.i46, label %108, label %cubic_peak.exit48, !llvm.loop !6

cubic_peak.exit48:                                ; preds = %108, %131, %133
  %.080.i37 = phi i64 [ 0, %108 ], [ %.291.i39, %131 ], [ %.285.i41, %133 ]
  %135 = icmp sgt i32 %.0.i32, 0
  %136 = zext nneg i32 %.0.i32 to i64
  %137 = ashr i64 %.080.i37, %136
  %138 = sub nsw i32 0, %.0.i32
  %139 = zext nneg i32 %138 to i64
  %140 = shl i64 %.080.i37, %139
  %.1.i38 = select i1 %135, i64 %137, i64 %140
  %141 = sub nsw i64 %75, %.1.i38
  store i64 %141, ptr %4, align 8
  br label %142

142:                                              ; preds = %74, %cubic_peak.exit48
  ret void
}